target datalayout = "e-m:e-p270:32:32-p271:32:32-p272:64:64-i64:64-i128:128-f80:128-n8:16:32:64-S128"
target triple = "x86_64-pc-linux-gnu"

%"struct.(anonymous namespace)::IntRange" = type <{ i32, i8, [3 x i8] }>

; Function Attrs: mustprogress nounwind uwtable
define internal void @_ZN12_GLOBAL__N_18IntRangeC2Ejb(ptr noundef nonnull align 4 dereferenceable(5) %0, i32 noundef %1, i1 noundef zeroext %2) unnamed_addr #0 align 2 {
  %4 = alloca ptr, align 8
  %5 = alloca i32, align 4
  %6 = alloca i8, align 1
  store ptr %0, ptr %4, align 8
  store i32 %1, ptr %5, align 4
  %7 = zext i1 %2 to i8
  store i8 %7, ptr %6, align 1
  %8 = load ptr, ptr %4, align 8
  %9 = getelementptr inbounds nuw %"struct.(anonymous namespace)::IntRange", ptr %8, i32 0, i32 0
  %10 = load i32, ptr %5, align 4
  store i32 %10, ptr %9, align 4
  %11 = getelementptr inbounds nuw %"struct.(anonymous namespace)::IntRange", ptr %8, i32 0, i32 1
  %12 = load i8, ptr %6, align 1
  %13 = trunc i8 %12 to i1
  %14 = zext i1 %13 to i8
  store i8 %14, ptr %11, align 4
  ret void
}

; Function Attrs: mustprogress nounwind uwtable
define linkonce_odr noundef nonnull align 4 dereferenceable(4) ptr @_ZSt3maxIjERKT_S2_S2_(ptr noundef nonnull align 4 dereferenceable(4) %0, ptr noundef nonnull align 4 dereferenceable(4) %1) #0 comdat {
  %3 = alloca ptr, align 8
  %4 = alloca ptr, align 8
  %5 = alloca ptr, align 8
  store ptr %0, ptr %4, align 8
  store ptr %1, ptr %5, align 8
  %6 = load ptr, ptr %4, align 8
  %7 = load i32, ptr %6, align 4
  %8 = load ptr, ptr %5, align 8
  %9 = load i32, ptr %8, align 4
  %10 = icmp ult i32 %7, %9
  br i1 %10, label %11, label %13

11:                                               ; preds = %2
  %12 = load ptr, ptr %5, align 8
  store ptr %12, ptr %3, align 8
  br label %15

13:                                               ; preds = %2
  %14 = load ptr, ptr %4, align 8
  store ptr %14, ptr %3, align 8
  br label %15

15:                                               ; preds = %13, %11
  %16 = load ptr, ptr %3, align 8
  ret ptr %16
}

; Function Attrs: mustprogress nounwind uwtable
define internal noundef i32 @_ZNK12_GLOBAL__N_18IntRange9valueBitsEv(ptr noundef nonnull align 4 dereferenceable(5) %0) #0 align 2 {
  %2 = alloca ptr, align 8
  store ptr %0, ptr %2, align 8
  %3 = load ptr, ptr %2, align 8
  %4 = getelementptr inbounds nuw %"struct.(anonymous namespace)::IntRange", ptr %3, i32 0, i32 1
  %5 = load i8, ptr %4, align 4
  %6 = trunc i8 %5 to i1
  br i1 %6, label %7, label %10

7:                                                ; preds = %1
  %8 = getelementptr inbounds nuw %"struct.(anonymous namespace)::IntRange", ptr %3, i32 0, i32 0
  %9 = load i32, ptr %8, align 4
  br label %14

10:                                               ; preds = %1
  %11 = getelementptr inbounds nuw %"struct.(anonymous namespace)::IntRange", ptr %3, i32 0, i32 0
  %12 = load i32, ptr %11, align 4
  %13 = sub i32 %12, 1
  br label %14

14:                                               ; preds = %10, %7
  %15 = phi i32 [ %9, %7 ], [ %13, %10 ]
  ret i32 %15
}

; Function Attrs: mustprogress nounwind uwtable
define internal i64 @_ZN12_GLOBAL__N_18IntRange10differenceES0_S0_(i64 %0, i64 %1) #0 align 2 {
  %3 = alloca %"struct.(anonymous namespace)::IntRange", align 4
  %4 = alloca %"struct.(anonymous namespace)::IntRange", align 4
  %5 = alloca %"struct.(anonymous namespace)::IntRange", align 4
  %6 = alloca i8, align 1
  %7 = alloca i8, align 1
  %8 = alloca i32, align 4
  %9 = alloca i32, align 4
  store i64 %0, ptr %4, align 4
  store i64 %1, ptr %5, align 4
  %10 = getelementptr inbounds nuw %"struct.(anonymous namespace)::IntRange", ptr %4, i32 0, i32 1
  %11 = load i8, ptr %10, align 4
  %12 = trunc i8 %11 to i1
  br i1 %12, label %13, label %18

13:                                               ; preds = %2
  %14 = getelementptr inbounds nuw %"struct.(anonymous namespace)::IntRange", ptr %5, i32 0, i32 1
  %15 = load i8, ptr %14, align 4
  %16 = trunc i8 %15 to i1
  %17 = xor i1 %16, true
  br label %18

18:                                               ; preds = %13, %2
  %19 = phi i1 [ true, %2 ], [ %17, %13 ]
  %20 = zext i1 %19 to i8
  store i8 %20, ptr %6, align 1
  %21 = getelementptr inbounds nuw %"struct.(anonymous namespace)::IntRange", ptr %4, i32 0, i32 1
  %22 = load i8, ptr %21, align 4
  %23 = trunc i8 %22 to i1
  br i1 %23, label %24, label %28

24:                                               ; preds = %18
  %25 = getelementptr inbounds nuw %"struct.(anonymous namespace)::IntRange", ptr %5, i32 0, i32 0
  %26 = load i32, ptr %25, align 4
  %27 = icmp eq i32 %26, 0
  br label %28

28:                                               ; preds = %24, %18
  %29 = phi i1 [ false, %18 ], [ %27, %24 ]
  %30 = zext i1 %29 to i8
  store i8 %30, ptr %7, align 1
  %31 = call noundef i32 @_ZNK12_GLOBAL__N_18IntRange9valueBitsEv(ptr noundef nonnull align 4 dereferenceable(5) %4)
  store i32 %31, ptr %8, align 4
  %32 = call noundef i32 @_ZNK12_GLOBAL__N_18IntRange9valueBitsEv(ptr noundef nonnull align 4 dereferenceable(5) %5)
  store i32 %32, ptr %9, align 4
  %33 = call noundef nonnull align 4 dereferenceable(4) ptr @_ZSt3maxIjERKT_S2_S2_(ptr noundef nonnull align 4 dereferenceable(4) %8, ptr noundef nonnull align 4 dereferenceable(4) %9)
  %34 = load i32, ptr %33, align 4
  %35 = load i8, ptr %6, align 1
  %36 = trunc i8 %35 to i1
  %37 = zext i1 %36 to i32
  %38 = add i32 %34, %37
  %39 = load i8, ptr %7, align 1
  %40 = trunc i8 %39 to i1
  %41 = xor i1 %40, true
  %42 = zext i1 %41 to i32
  %43 = add i32 %38, %42
  %44 = load i8, ptr %7, align 1
  %45 = trunc i8 %44 to i1
  call void @_ZN12_GLOBAL__N_18IntRangeC2Ejb(ptr noundef nonnull align 4 dereferenceable(5) %3, i32 noundef %43, i1 noundef zeroext %45)
  %46 = load i64, ptr %3, align 4
  ret i64 %46
}