; Function Attrs: mustprogress nofree norecurse nosync nounwind willreturn memory(none) uwtable
define internal range(i64 0, 8589934592) i64 @_ZN12_GLOBAL__N_18IntRange10differenceES0_S0_(i64 %0, i64 %1) unnamed_addr #8 align 2 {
  %.sroa.09.0.extract.trunc = trunc i64 %0 to i32
  %.sroa.2.0.extract.shift = lshr i64 %0, 32
  %.sroa.2.0.extract.trunc = trunc nuw i64 %.sroa.2.0.extract.shift to i32
  %.sroa.0.0.extract.trunc = trunc i64 %1 to i32
  %.sroa.3.0.extract.shift = lshr i64 %1, 32
  %.sroa.3.0.extract.trunc = trunc nuw i64 %.sroa.3.0.extract.shift to i32
  %3 = trunc i64 %.sroa.2.0.extract.shift to i1
  %4 = and i32 %.sroa.3.0.extract.trunc, 1
  %5 = xor i32 %4, 1
  %6 = icmp eq i32 %.sroa.0.0.extract.trunc, 0
  %7 = select i1 %3, i1 %6, i1 false
  %8 = and i32 %.sroa.2.0.extract.trunc, 1
  %9 = xor i32 %8, 1
  %10 = sub i32 %.sroa.09.0.extract.trunc, %9
  %11 = sub i32 %.sroa.0.0.extract.trunc, %5
  %.sroa.speculated = tail call i32 @llvm.umax.i32(i32 %10, i32 %11)
  %12 = select i1 %3, i32 %5, i32 1
  %13 = xor i1 %7, true
  %14 = zext i1 %13 to i32
  %15 = add nuw nsw i32 %12, %14
  %16 = add i32 %15, %.sroa.speculated
  %.sroa.211.0.insert.shift = select i1 %7, i64 4294967296, i64 0
  %.sroa.010.0.insert.ext = zext i32 %16 to i64
  %.sroa.010.0.insert.insert = or disjoint i64 %.sroa.211.0.insert.shift, %.sroa.010.0.insert.ext
  ret i64 %.sroa.010.0.insert.insert
}